target datalayout = "e-m:e-p270:32:32-p271:32:32-p272:64:64-i64:64-i128:128-f80:128-n8:16:32:64-S128"
target triple = "x86_64-pc-linux-gnu"

@_ZL17gJapaneseEraRules = internal global ptr null, align 8

; Function Attrs: inlinehint mustprogress nounwind uwtable
define internal noundef signext i8 @_ZL9U_FAILURE10UErrorCode(i32 noundef %0) #5 {
  %2 = alloca i32, align 4
  store i32 %0, ptr %2, align 4, !tbaa !18
  %3 = load i32, ptr %2, align 4, !tbaa !18
  %4 = icmp sgt i32 %3, 0
  %5 = zext i1 %4 to i8
  ret i8 %5
}

; Function Attrs: mustprogress uwtable
define noundef i32 @_ZN6icu_7716JapaneseCalendar20getDefaultDayInMonthEiiR10UErrorCode(ptr noundef nonnull align 8 dereferenceable(222) %0, i32 noundef %1, i32 noundef %2, ptr noundef nonnull align 4 dereferenceable(4) %3) unnamed_addr #1 align 2 {
  %5 = alloca i32, align 4
  %6 = alloca ptr, align 8
  %7 = alloca i32, align 4
  %8 = alloca i32, align 4
  %9 = alloca ptr, align 8
  %10 = alloca i32, align 4
  %11 = alloca i32, align 4
  %12 = alloca [3 x i32], align 4
  %13 = alloca i32, align 4
  store ptr %0, ptr %6, align 8, !tbaa !3
  store i32 %1, ptr %7, align 4, !tbaa !11
  store i32 %2, ptr %8, align 4, !tbaa !11
  store ptr %3, ptr %9, align 8, !tbaa !15
  %14 = load ptr, ptr %6, align 8
  %15 = load ptr, ptr %9, align 8, !tbaa !15
  %16 = load i32, ptr %15, align 4, !tbaa !18
  %17 = call noundef signext i8 @_ZL9U_FAILURE10UErrorCode(i32 noundef %16)
  %18 = icmp ne i8 %17, 0
  br i1 %18, label %19, label %20

19:                                               ; preds = %4
  store i32 0, ptr %5, align 4
  br label %50

20:                                               ; preds = %4
  call void @llvm.lifetime.start.p0(i64 4, ptr %10) #10
  %21 = load ptr, ptr %14, align 8, !tbaa !16
  %22 = getelementptr inbounds ptr, ptr %21, i64 56
  %23 = load ptr, ptr %22, align 8
  %24 = call noundef i32 %23(ptr noundef nonnull align 8 dereferenceable(222) %14)
  store i32 %24, ptr %10, align 4, !tbaa !11
  call void @llvm.lifetime.start.p0(i64 4, ptr %11) #10
  store i32 1, ptr %11, align 4, !tbaa !11
  call void @llvm.lifetime.start.p0(i64 12, ptr %12) #10
  call void @llvm.memset.p0.i64(ptr align 4 %12, i8 0, i64 12, i1 false)
  %25 = load ptr, ptr @_ZL17gJapaneseEraRules, align 8, !tbaa !20
  %26 = load i32, ptr %10, align 4, !tbaa !11
  %27 = load ptr, ptr %9, align 8, !tbaa !15
  call void @_ZNK6icu_778EraRules12getStartDateEiRA3_iR10UErrorCode(ptr noundef nonnull align 8 dereferenceable(16) %25, i32 noundef %26, ptr noundef nonnull align 4 dereferenceable(12) %12, ptr noundef nonnull align 4 dereferenceable(4) %27)
  %28 = load ptr, ptr %9, align 8, !tbaa !15
  %29 = load i32, ptr %28, align 4, !tbaa !18
  %30 = call noundef signext i8 @_ZL9U_FAILURE10UErrorCode(i32 noundef %29)
  %31 = icmp ne i8 %30, 0
  br i1 %31, label %32, label %33

32:                                               ; preds = %20
  store i32 0, ptr %5, align 4
  store i32 1, ptr %13, align 4
  br label %49

33:                                               ; preds = %20
  %34 = load i32, ptr %7, align 4, !tbaa !11
  %35 = getelementptr inbounds [3 x i32], ptr %12, i64 0, i64 0
  %36 = load i32, ptr %35, align 4, !tbaa !11
  %37 = icmp eq i32 %34, %36
  br i1 %37, label %38, label %47

38:                                               ; preds = %33
  %39 = load i32, ptr %8, align 4, !tbaa !11
  %40 = getelementptr inbounds [3 x i32], ptr %12, i64 0, i64 1
  %41 = load i32, ptr %40, align 4, !tbaa !11
  %42 = sub nsw i32 %41, 1
  %43 = icmp eq i32 %39, %42
  br i1 %43, label %44, label %47

44:                                               ; preds = %38
  %45 = getelementptr inbounds [3 x i32], ptr %12, i64 0, i64 2
  %46 = load i32, ptr %45, align 4, !tbaa !11
  store i32 %46, ptr %5, align 4
  store i32 1, ptr %13, align 4
  br label %49

47:                                               ; preds = %38, %33
  %48 = load i32, ptr %11, align 4, !tbaa !11
  store i32 %48, ptr %5, align 4
  store i32 1, ptr %13, align 4
  br label %49

49:                                               ; preds = %47, %44, %32
  call void @llvm.lifetime.end.p0(i64 12, ptr %12) #10
  call void @llvm.lifetime.end.p0(i64 4, ptr %11) #10
  call void @llvm.lifetime.end.p0(i64 4, ptr %10) #10
  br label %50

50:                                               ; preds = %49, %19
  %51 = load i32, ptr %5, align 4
  ret i32 %51
}