; Function Attrs: mustprogress uwtable
define noundef i32 @_ZN6icu_7716JapaneseCalendar20getDefaultDayInMonthEiiR10UErrorCode(ptr noundef nonnull align 8 dereferenceable(222) %0, i32 noundef %1, i32 noundef %2, ptr noundef nonnull align 4 dereferenceable(4) %3) unnamed_addr #1 align 2 {
  %5 = alloca [3 x i32], align 4
  %6 = load i32, ptr %3, align 4, !tbaa !9
  %7 = icmp slt i32 %6, 1
  br i1 %7, label %8, label %28

8:                                                ; preds = %4
  %9 = load ptr, ptr %0, align 8, !tbaa !7
  %10 = getelementptr inbounds nuw i8, ptr %9, i64 448
  %11 = load ptr, ptr %10, align 8
  %12 = tail call noundef i32 %11(ptr noundef nonnull align 8 dereferenceable(222) %0)
  call void @llvm.lifetime.start.p0(i64 12, ptr nonnull %5) #10
  call void @llvm.memset.p0.i64(ptr noundef nonnull align 4 dereferenceable(12) %5, i8 0, i64 12, i1 false)
  %13 = load ptr, ptr @_ZL17gJapaneseEraRules, align 8, !tbaa !11
  call void @_ZNK6icu_778EraRules12getStartDateEiRA3_iR10UErrorCode(ptr noundef nonnull align 8 dereferenceable(16) %13, i32 noundef %12, ptr noundef nonnull align 4 dereferenceable(12) %5, ptr noundef nonnull align 4 dereferenceable(4) %3)
  %14 = load i32, ptr %3, align 4, !tbaa !9
  %15 = icmp slt i32 %14, 1
  br i1 %15, label %16, label %27

16:                                               ; preds = %8
  %17 = load i32, ptr %5, align 4, !tbaa !3
  %18 = icmp eq i32 %1, %17
  br i1 %18, label %19, label %27

19:                                               ; preds = %16
  %20 = getelementptr inbounds nuw i8, ptr %5, i64 4
  %21 = load i32, ptr %20, align 4, !tbaa !3
  %22 = add nsw i32 %21, -1
  %23 = icmp eq i32 %2, %22
  br i1 %23, label %24, label %27

24:                                               ; preds = %19
  %25 = getelementptr inbounds nuw i8, ptr %5, i64 8
  %26 = load i32, ptr %25, align 4, !tbaa !3
  br label %27

27:                                               ; preds = %16, %19, %8, %24
  %.1 = phi i32 [ %26, %24 ], [ 0, %8 ], [ 1, %19 ], [ 1, %16 ]
  call void @llvm.lifetime.end.p0(i64 12, ptr nonnull %5) #10
  br label %28

28:                                               ; preds = %4, %27
  %.0 = phi i32 [ %.1, %27 ], [ 0, %4 ]
  ret i32 %.0
}